; Function Attrs: mustprogress nounwind uwtable
define void @_ZNK4LIEF12BinaryStream11read_stringB5cxx11Em(ptr dead_on_unwind noalias writable sret(%"class.tl::expected.76") align 8 %0, ptr noundef nonnull align 8 dereferenceable(24) %1, i64 noundef %2) local_unnamed_addr #0 align 2 {
  tail call void @_ZNK4LIEF12BinaryStream11peek_stringB5cxx11Em(ptr dead_on_unwind writable sret(%"class.tl::expected.76") align 8 %0, ptr noundef nonnull align 8 dereferenceable(24) %1, i64 noundef %2)
  %4 = getelementptr inbounds nuw i8, ptr %0, i64 32
  %5 = load i8, ptr %4, align 8, !tbaa !24, !range !14, !noundef !15
  %6 = trunc nuw i8 %5 to i1
  br i1 %6, label %7, label %14

7:                                                ; preds = %3
  %8 = getelementptr inbounds nuw i8, ptr %0, i64 8
  %9 = load i64, ptr %8, align 8, !tbaa !26
  %10 = add i64 %9, 1
  %11 = getelementptr inbounds nuw i8, ptr %1, i64 8
  %12 = load i64, ptr %11, align 8, !tbaa !3
  %13 = add i64 %10, %12
  store i64 %13, ptr %11, align 8, !tbaa !3
  br label %14

14:                                               ; preds = %7, %3
  ret void
}